	.file	"main.c"
	.intel_syntax noprefix
	.text
	.globl	foo
	.type	foo, @function
foo:
.LFB0:
	.cfi_startproc
	push	rbp
	.cfi_def_cfa_offset 16
	.cfi_offset 6, -16
	mov	rbp, rsp
	.cfi_def_cfa_register 6
	sub	rsp, 16
	mov	eax, DWORD PTR .LC0[rip]
	movd	xmm0, eax
	call	my_sin@PLT
	movd	eax, xmm0
	mov	DWORD PTR -4[rbp], eax
	nop
	leave
	.cfi_def_cfa 7, 8
	ret
	.cfi_endproc
.LFE0:
	.size	foo, .-foo
	.globl	bar
	.type	bar, @function
bar:
.LFB1:
	.cfi_startproc
	push	rbp
	.cfi_def_cfa_offset 16
	.cfi_offset 6, -16
	mov	rbp, rsp
	.cfi_def_cfa_register 6
	sub	rsp, 16
	mov	eax, DWORD PTR .LC0[rip]
	movd	xmm0, eax
	call	my_sin@PLT
	movd	eax, xmm0
	mov	DWORD PTR -4[rbp], eax
	nop
	leave
	.cfi_def_cfa 7, 8
	ret
	.cfi_endproc
.LFE1:
	.size	bar, .-bar
	.globl	main
	.type	main, @function
main:
.LFB2:
	.cfi_startproc
	push	rbp
	.cfi_def_cfa_offset 16
	.cfi_offset 6, -16
	mov	rbp, rsp
	.cfi_def_cfa_register 6
	mov	eax, 0
	pop	rbp
	.cfi_def_cfa 7, 8
	ret
	.cfi_endproc
.LFE2:
	.size	main, .-main
	.section	.rodata
	.align 4
.LC0:
	.long	1036831949
	.ident	"GCC: (GNU) 14.2.1 20240910"
	.section	.note.GNU-stack,"",@progbits
